# SymbolsHelper-Confirmed: 1.0.3 amd64
KSC_Fake.so libkscreen1 #MINVER#
 qt_plugin_instance@Base 1.0
 qt_plugin_query_verification_data@Base 1.0
KSC_XRandR.so libkscreen1 #MINVER#
 qt_plugin_instance@Base 1.0
 qt_plugin_query_verification_data@Base 1.0
KSC_XRandR11.so libkscreen1 #MINVER#
 qt_plugin_instance@Base 1.0
 qt_plugin_query_verification_data@Base 1.0
libkscreen.so.1 libkscreen1 #MINVER#
 _ZN7KScreen13ConfigMonitor11qt_metacallEN11QMetaObject4CallEiPPv@Base 1.0
 _ZN7KScreen13ConfigMonitor11qt_metacastEPKc@Base 1.0
 _ZN7KScreen13ConfigMonitor12notifyUpdateEv@Base 1.0
 _ZN7KScreen13ConfigMonitor12removeConfigEPNS_6ConfigE@Base 1.0
 _ZN7KScreen13ConfigMonitor16staticMetaObjectE@Base 1.0
 _ZN7KScreen13ConfigMonitor20configurationChangedEv@Base 1.0
 _ZN7KScreen13ConfigMonitor7Private13updateConfigsEv@Base 1.0
 _ZN7KScreen13ConfigMonitor7Private25_k_configurationDestroyedEP7QObject@Base 1.0.2
 _ZN7KScreen13ConfigMonitor8instanceEv@Base 1.0
 _ZN7KScreen13ConfigMonitor9addConfigEPNS_6ConfigE@Base 1.0
 _ZN7KScreen13ConfigMonitorC1Ev@Base 1.0
 _ZN7KScreen13ConfigMonitorC2Ev@Base 1.0
 _ZN7KScreen13ConfigMonitorD0Ev@Base 1.0
 _ZN7KScreen13ConfigMonitorD1Ev@Base 1.0
 _ZN7KScreen13ConfigMonitorD2Ev@Base 1.0
 _ZN7KScreen4Edid11qt_metacallEN11QMetaObject4CallEiPPv@Base 1.0
 _ZN7KScreen4Edid11qt_metacastEPKc@Base 1.0
 _ZN7KScreen4Edid16staticMetaObjectE@Base 1.0
 (subst)_ZN7KScreen4Edid7Private5parseEPKh{size_t}@Base 1.0
 (subst)_ZN7KScreen4EdidC1EPKh{size_t}P7QObject@Base 1.0
 _ZN7KScreen4EdidC1EPNS0_7PrivateE@Base 1.0.2
 _ZN7KScreen4EdidC1Ev@Base 1.0
 (subst)_ZN7KScreen4EdidC2EPKh{size_t}P7QObject@Base 1.0
 _ZN7KScreen4EdidC2EPNS0_7PrivateE@Base 1.0.2
 _ZN7KScreen4EdidC2Ev@Base 1.0
 _ZN7KScreen4EdidD0Ev@Base 1.0
 _ZN7KScreen4EdidD1Ev@Base 1.0
 _ZN7KScreen4EdidD2Ev@Base 1.0
 _ZN7KScreen4Mode11modeChangedEv@Base 1.0
 _ZN7KScreen4Mode11qt_metacallEN11QMetaObject4CallEiPPv@Base 1.0
 _ZN7KScreen4Mode11qt_metacastEPKc@Base 1.0
 _ZN7KScreen4Mode14setRefreshRateEf@Base 1.0
 _ZN7KScreen4Mode16staticMetaObjectE@Base 1.0
 _ZN7KScreen4Mode5setIdERK7QString@Base 1.0
 _ZN7KScreen4Mode7setNameERK7QString@Base 1.0
 _ZN7KScreen4Mode7setSizeERK5QSize@Base 1.0
 _ZN7KScreen4ModeC1EP7QObject@Base 1.0
 _ZN7KScreen4ModeC1EPNS0_7PrivateE@Base 1.0.2
 _ZN7KScreen4ModeC2EP7QObject@Base 1.0
 _ZN7KScreen4ModeC2EPNS0_7PrivateE@Base 1.0.2
 _ZN7KScreen4ModeD0Ev@Base 1.0
 _ZN7KScreen4ModeD1Ev@Base 1.0
 _ZN7KScreen4ModeD2Ev@Base 1.0
 _ZN7KScreen6Config10setOutputsE5QHashIiPNS_6OutputEE@Base 1.0
 _ZN7KScreen6Config11loadBackendEv@Base 1.0
 _ZN7KScreen6Config11outputAddedEPNS_6OutputE@Base 1.0.2
 _ZN7KScreen6Config11qt_metacallEN11QMetaObject4CallEiPPv@Base 1.0
 _ZN7KScreen6Config11qt_metacastEPKc@Base 1.0
 _ZN7KScreen6Config12canBeAppliedEPS0_@Base 1.0
 _ZN7KScreen6Config12removeOutputEi@Base 1.0.2
 _ZN7KScreen6Config13outputRemovedEi@Base 1.0.2
 _ZN7KScreen6Config16setPrimaryOutputEPNS_6OutputE@Base 1.0.3
 _ZN7KScreen6Config16staticMetaObjectE@Base 1.0
 _ZN7KScreen6Config20primaryOutputChangedEPNS_6OutputE@Base 1.0.3
 _ZN7KScreen6Config7currentEv@Base 1.0
 _ZN7KScreen6Config8setValidEb@Base 1.0
 _ZN7KScreen6Config9addOutputEPNS_6OutputE@Base 1.0.2
 _ZN7KScreen6Config9setConfigEPS0_@Base 1.0
 _ZN7KScreen6Config9setScreenEPNS_6ScreenE@Base 1.0
 _ZN7KScreen6ConfigC1EP7QObject@Base 1.0
 _ZN7KScreen6ConfigC1EPNS0_7PrivateE@Base 1.0.2
 _ZN7KScreen6ConfigC2EP7QObject@Base 1.0
 _ZN7KScreen6ConfigC2EPNS0_7PrivateE@Base 1.0.2
 _ZN7KScreen6ConfigD0Ev@Base 1.0
 _ZN7KScreen6ConfigD1Ev@Base 1.0
 _ZN7KScreen6ConfigD2Ev@Base 1.0
 _ZN7KScreen6Output10posChangedEv@Base 1.0
 _ZN7KScreen6Output10setEnabledEb@Base 1.0
 _ZN7KScreen6Output10setPrimaryEb@Base 1.0
 _ZN7KScreen6Output11qt_metacallEN11QMetaObject4CallEiPPv@Base 1.0
 _ZN7KScreen6Output11qt_metacastEPKc@Base 1.0
 _ZN7KScreen6Output11setRotationENS0_8RotationE@Base 1.0
 _ZN7KScreen6Output12setConnectedEb@Base 1.0
 _ZN7KScreen6Output13clonesChangedEv@Base 1.0
 _ZN7KScreen6Output13outputChangedEv@Base 1.0
 _ZN7KScreen6Output15rotationChangedEv@Base 1.0
 _ZN7KScreen6Output16isEnabledChangedEv@Base 1.0
 _ZN7KScreen6Output16isPrimaryChangedEv@Base 1.0
 _ZN7KScreen6Output16setCurrentModeIdERK7QString@Base 1.0
 _ZN7KScreen6Output16staticMetaObjectE@Base 1.0
 _ZN7KScreen6Output17setPreferredModesERK11QStringList@Base 1.0
 _ZN7KScreen6Output18isConnectedChangedEv@Base 1.0
 _ZN7KScreen6Output20currentModeIdChangedEv@Base 1.0
 _ZN7KScreen6Output5setIdEi@Base 1.0
 _ZN7KScreen6Output6setPosERK6QPoint@Base 1.0
 _ZN7KScreen6Output7setIconERK7QString@Base 1.0
 _ZN7KScreen6Output7setNameERK7QString@Base 1.0
 _ZN7KScreen6Output7setTypeENS0_4TypeE@Base 1.0
 _ZN7KScreen6Output8setModesE5QHashI7QStringPNS_4ModeEE@Base 1.0
 _ZN7KScreen6Output9setClonesE5QListIiE@Base 1.0
 _ZN7KScreen6Output9setSizeMmERK5QSize@Base 1.0.2
 _ZN7KScreen6OutputC1EP7QObject@Base 1.0
 _ZN7KScreen6OutputC1EPNS0_7PrivateE@Base 1.0.2
 _ZN7KScreen6OutputC2EP7QObject@Base 1.0
 _ZN7KScreen6OutputC2EPNS0_7PrivateE@Base 1.0.2
 _ZN7KScreen6OutputD0Ev@Base 1.0
 _ZN7KScreen6OutputD1Ev@Base 1.0
 _ZN7KScreen6OutputD2Ev@Base 1.0
 _ZN7KScreen6Screen10setMaxSizeERK5QSize@Base 1.0
 _ZN7KScreen6Screen10setMinSizeERK5QSize@Base 1.0
 _ZN7KScreen6Screen11qt_metacallEN11QMetaObject4CallEiPPv@Base 1.0
 _ZN7KScreen6Screen11qt_metacastEPKc@Base 1.0
 _ZN7KScreen6Screen14setCurrentSizeERK5QSize@Base 1.0
 _ZN7KScreen6Screen16staticMetaObjectE@Base 1.0
 _ZN7KScreen6Screen18currentSizeChangedEv@Base 1.0
 _ZN7KScreen6Screen24setMaxActiveOutputsCountEi@Base 1.0.3
 _ZN7KScreen6Screen5setIdEi@Base 1.0
 _ZN7KScreen6ScreenC1EP7QObject@Base 1.0
 _ZN7KScreen6ScreenC1EPNS0_7PrivateE@Base 1.0.2
 _ZN7KScreen6ScreenC2EP7QObject@Base 1.0
 _ZN7KScreen6ScreenC2EPNS0_7PrivateE@Base 1.0.2
 _ZN7KScreen6ScreenD0Ev@Base 1.0
 _ZN7KScreen6ScreenD1Ev@Base 1.0
 _ZN7KScreen6ScreenD2Ev@Base 1.0
 _ZNK7KScreen13ConfigMonitor10metaObjectEv@Base 1.0
 _ZNK7KScreen4Edid10metaObjectEv@Base 1.0
 _ZNK7KScreen4Edid3redEv@Base 1.0
 _ZNK7KScreen4Edid4blueEv@Base 1.0
 _ZNK7KScreen4Edid4hashEv@Base 1.0
 _ZNK7KScreen4Edid4nameEv@Base 1.0
 _ZNK7KScreen4Edid5cloneEv@Base 1.0.2
 _ZNK7KScreen4Edid5gammaEv@Base 1.0
 _ZNK7KScreen4Edid5greenEv@Base 1.0
 _ZNK7KScreen4Edid5pnpIdEv@Base 1.0
 _ZNK7KScreen4Edid5whiteEv@Base 1.0
 _ZNK7KScreen4Edid5widthEv@Base 1.0
 _ZNK7KScreen4Edid6eisaIdEv@Base 1.0
 _ZNK7KScreen4Edid6heightEv@Base 1.0
 _ZNK7KScreen4Edid6serialEv@Base 1.0
 _ZNK7KScreen4Edid6vendorEv@Base 1.0
 _ZNK7KScreen4Edid7Private10edidGetBitEii@Base 1.0
 _ZNK7KScreen4Edid7Private11edidGetBitsEiii@Base 1.0
 _ZNK7KScreen4Edid7Private15edidParseStringEPKh@Base 1.0
 _ZNK7KScreen4Edid7Private18edidDecodeFractionEii@Base 1.0
 _ZNK7KScreen4Edid7isValidEv@Base 1.0
 _ZNK7KScreen4Edid8deviceIdERK7QString@Base 1.0
 _ZNK7KScreen4Mode10metaObjectEv@Base 1.0
 _ZNK7KScreen4Mode11refreshRateEv@Base 1.0
 _ZNK7KScreen4Mode2idEv@Base 1.0
 _ZNK7KScreen4Mode4nameEv@Base 1.0
 _ZNK7KScreen4Mode4sizeEv@Base 1.0
 _ZNK7KScreen4Mode5cloneEv@Base 1.0.2
 _ZNK7KScreen6Config10metaObjectEv@Base 1.0
 _ZNK7KScreen6Config13primaryOutputEv@Base 1.0
 _ZNK7KScreen6Config16connectedOutputsEv@Base 1.0
 _ZNK7KScreen6Config5cloneEv@Base 1.0.2
 _ZNK7KScreen6Config6outputEi@Base 1.0
 _ZNK7KScreen6Config6screenEv@Base 1.0
 _ZNK7KScreen6Config7isValidEv@Base 1.0
 _ZNK7KScreen6Config7outputsEv@Base 1.0
 _ZNK7KScreen6Output10metaObjectEv@Base 1.0
 _ZNK7KScreen6Output11currentModeEv@Base 1.0
 _ZNK7KScreen6Output11isConnectedEv@Base 1.0
 _ZNK7KScreen6Output13currentModeIdEv@Base 1.0
 _ZNK7KScreen6Output13preferredModeEv@Base 1.0
 _ZNK7KScreen6Output14preferredModesEv@Base 1.0
 _ZNK7KScreen6Output15preferredModeIdEv@Base 1.0
 _ZNK7KScreen6Output2idEv@Base 1.0
 _ZNK7KScreen6Output3posEv@Base 1.0
 _ZNK7KScreen6Output4edidEv@Base 1.0
 _ZNK7KScreen6Output4iconEv@Base 1.0
 _ZNK7KScreen6Output4modeERK7QString@Base 1.0
 _ZNK7KScreen6Output4nameEv@Base 1.0
 _ZNK7KScreen6Output4typeEv@Base 1.0
 _ZNK7KScreen6Output5cloneEv@Base 1.0.2
 _ZNK7KScreen6Output5modesEv@Base 1.0
 _ZNK7KScreen6Output6clonesEv@Base 1.0
 _ZNK7KScreen6Output6sizeMmEv@Base 1.0.2
 _ZNK7KScreen6Output7Private11biggestModeERK5QHashI7QStringPNS_4ModeEE@Base 1.0
 _ZNK7KScreen6Output8rotationEv@Base 1.0
 _ZNK7KScreen6Output9isEnabledEv@Base 1.0
 _ZNK7KScreen6Output9isPrimaryEv@Base 1.0
 _ZNK7KScreen6Screen10metaObjectEv@Base 1.0
 _ZNK7KScreen6Screen11currentSizeEv@Base 1.0
 _ZNK7KScreen6Screen21maxActiveOutputsCountEv@Base 1.0.3
 _ZNK7KScreen6Screen2idEv@Base 1.0
 _ZNK7KScreen6Screen5cloneEv@Base 1.0.2
 _ZNK7KScreen6Screen7maxSizeEv@Base 1.0
 _ZNK7KScreen6Screen7minSizeEv@Base 1.0
 _ZTIN7KScreen13ConfigMonitorE@Base 1.0
 _ZTIN7KScreen4EdidE@Base 1.0
 _ZTIN7KScreen4ModeE@Base 1.0
 _ZTIN7KScreen6ConfigE@Base 1.0
 _ZTIN7KScreen6OutputE@Base 1.0
 _ZTIN7KScreen6ScreenE@Base 1.0
 _ZTSN7KScreen13ConfigMonitorE@Base 1.0
 _ZTSN7KScreen4EdidE@Base 1.0
 _ZTSN7KScreen4ModeE@Base 1.0
 _ZTSN7KScreen6ConfigE@Base 1.0
 _ZTSN7KScreen6OutputE@Base 1.0
 _ZTSN7KScreen6ScreenE@Base 1.0
 _ZTVN7KScreen13ConfigMonitorE@Base 1.0
 _ZTVN7KScreen4EdidE@Base 1.0
 _ZTVN7KScreen4ModeE@Base 1.0
 _ZTVN7KScreen6ConfigE@Base 1.0
 _ZTVN7KScreen6OutputE@Base 1.0
 _ZTVN7KScreen6ScreenE@Base 1.0
 _Zls6QDebugPKN7KScreen4ModeE@Base 1.0.2
 _Zls6QDebugPKN7KScreen6OutputE@Base 1.0.2
